target datalayout = "e-m:e-p270:32:32-p271:32:32-p272:64:64-i64:64-i128:128-f80:128-n8:16:32:64-S128"
target triple = "x86_64-unknown-linux-gnu"

%"class.zmq::io_thread_t" = type { %"class.zmq::object_t.base", %"struct.zmq::i_poll_events", %"class.zmq::mailbox_t", ptr, ptr }
%"class.zmq::object_t.base" = type <{ ptr, ptr, i32 }>
%"struct.zmq::i_poll_events" = type { ptr }
%"class.zmq::mailbox_t" = type <{ %"class.zmq::i_mailbox", %"class.zmq::ypipe_t", %"class.zmq::signaler_t", [4 x i8], %"class.zmq::mutex_t", i8, [7 x i8] }>
%"class.zmq::i_mailbox" = type { ptr }
%"class.zmq::ypipe_t" = type { %"class.zmq::ypipe_base_t", %"class.zmq::yqueue_t", ptr, ptr, ptr, %"class.zmq::atomic_ptr_t.0" }
%"class.zmq::ypipe_base_t" = type { ptr }
%"class.zmq::yqueue_t" = type { ptr, i32, ptr, i32, ptr, i32, %"class.zmq::atomic_ptr_t" }
%"class.zmq::atomic_ptr_t" = type { %"struct.std::atomic" }
%"struct.std::atomic" = type { %"struct.std::__atomic_base" }
%"struct.std::__atomic_base" = type { ptr }
%"class.zmq::atomic_ptr_t.0" = type { %"struct.std::atomic.1" }
%"struct.std::atomic.1" = type { %"struct.std::__atomic_base.2" }
%"struct.std::__atomic_base.2" = type { ptr }
%"class.zmq::signaler_t" = type { i32, i32, i32 }
%"class.zmq::mutex_t" = type <{ %union.pthread_mutex_t, %union.pthread_mutexattr_t, [4 x i8] }>
%union.pthread_mutex_t = type { %struct.__pthread_mutex_s }
%struct.__pthread_mutex_s = type { i32, i32, i32, i32, i32, i16, i16, %struct.__pthread_internal_list }
%struct.__pthread_internal_list = type { ptr, ptr }
%union.pthread_mutexattr_t = type { i32 }

@.str.3 = private unnamed_addr constant [6 x i8] c"IO/%u\00", align 1

; Function Attrs: mustprogress uwtable
define void @_ZN3zmq11io_thread_t5startEv(ptr noundef nonnull align 8 dereferenceable(224) %this) #0 align 2 {
entry:
  %this.addr = alloca ptr, align 8
  %name = alloca [16 x i8], align 16
  store ptr %this, ptr %this.addr, align 8
  %this1 = load ptr, ptr %this.addr, align 8
  call void @llvm.memset.p0.i64(ptr align 16 %name, i8 0, i64 16, i1 false)
  %arraydecay = getelementptr inbounds [16 x i8], ptr %name, i64 0, i64 0
  %call = call noundef i32 @_ZNK3zmq8object_t7get_tidEv(ptr noundef nonnull align 8 dereferenceable(20) %this1)
  %sub = sub i32 %call, 1
  %sub2 = sub i32 %sub, 1
  %call3 = call i32 (ptr, i64, ptr, ...) @snprintf(ptr noundef %arraydecay, i64 noundef 16, ptr noundef @.str.3, i32 noundef %sub2) #11
  %_poller = getelementptr inbounds %"class.zmq::io_thread_t", ptr %this1, i32 0, i32 4
  %0 = load ptr, ptr %_poller, align 8
  %arraydecay4 = getelementptr inbounds [16 x i8], ptr %name, i64 0, i64 0
  call void @_ZN3zmq20worker_poller_base_t5startEPKc(ptr noundef nonnull align 8 dereferenceable(192) %0, ptr noundef %arraydecay4)
  ret void
}