; Function Attrs: mustprogress uwtable
define void @_ZN3zmq11io_thread_t5startEv(ptr noundef nonnull align 8 dereferenceable(224) %this) local_unnamed_addr #0 align 2 {
entry:
  %name = alloca [16 x i8], align 16
  call void @llvm.memset.p0.i64(ptr noundef nonnull align 16 dereferenceable(16) %name, i8 0, i64 16, i1 false)
  %call = tail call noundef i32 @_ZNK3zmq8object_t7get_tidEv(ptr noundef nonnull align 8 dereferenceable(20) %this)
  %sub2 = add i32 %call, -2
  %call3 = call i32 (ptr, i64, ptr, ...) @snprintf(ptr noundef nonnull dereferenceable(1) %name, i64 noundef 16, ptr noundef nonnull @.str.3, i32 noundef %sub2) #15
  %_poller = getelementptr inbounds i8, ptr %this, i64 216
  %0 = load ptr, ptr %_poller, align 8
  call void @_ZN3zmq20worker_poller_base_t5startEPKc(ptr noundef nonnull align 8 dereferenceable(192) %0, ptr noundef nonnull %name)
  ret void
}